; Function Attrs: mustprogress uwtable
define void @_ZN3zmq13ws_listener_t8in_eventEv(ptr noundef nonnull align 8 dereferenceable(1632) %this) unnamed_addr #0 align 2 personality ptr @__gxx_personality_v0 {
entry:
  %ref.tmp = alloca %"struct.zmq::endpoint_uri_pair_t", align 8
  %ref.tmp9 = alloca %"struct.zmq::endpoint_uri_pair_t", align 8
  %call = tail call noundef i32 @_ZN3zmq13ws_listener_t6acceptEv(ptr noundef nonnull align 8 dereferenceable(1632) %this)
  %cmp = icmp eq i32 %call, -1
  %ref.tmp9.sink9.sroa.gep = getelementptr inbounds i8, ptr %ref.tmp9, i64 32
  %ref.tmp9.sink9.sroa.gep10 = getelementptr inbounds i8, ptr %ref.tmp, i64 32
  br i1 %cmp, label %if.then, label %if.end

if.then:                                          ; preds = %entry
  %_socket = getelementptr inbounds i8, ptr %this, i64 1480
  %0 = load ptr, ptr %_socket, align 8
  %_endpoint = getelementptr inbounds i8, ptr %this, i64 1488
  call void @_ZN3zmq35make_unconnected_bind_endpoint_pairERKNSt7__cxx1112basic_stringIcSt11char_traitsIcESaIcEEE(ptr nonnull sret(%"struct.zmq::endpoint_uri_pair_t") align 8 %ref.tmp, ptr noundef nonnull align 8 dereferenceable(32) %_endpoint)
  %call2 = invoke i32 @zmq_errno()
          to label %invoke.cont unwind label %lpad

invoke.cont:                                      ; preds = %if.then
  invoke void @_ZN3zmq13socket_base_t19event_accept_failedERKNS_19endpoint_uri_pair_tEi(ptr noundef nonnull align 8 dereferenceable(1825) %0, ptr noundef nonnull align 8 dereferenceable(68) %ref.tmp, i32 noundef %call2)
          to label %invoke.cont3 unwind label %lpad

invoke.cont3:                                     ; preds = %invoke.cont
  %remote.i = getelementptr inbounds i8, ptr %ref.tmp, i64 32
  call void @_ZNSt7__cxx1112basic_stringIcSt11char_traitsIcESaIcEED1Ev(ptr noundef nonnull align 8 dereferenceable(32) %remote.i) #14
  call void @_ZNSt7__cxx1112basic_stringIcSt11char_traitsIcESaIcEED1Ev(ptr noundef nonnull align 8 dereferenceable(32) %ref.tmp) #14
  br label %return

lpad:                                             ; preds = %invoke.cont, %if.then
  %1 = landingpad { ptr, i32 }
          cleanup
  br label %eh.resume

if.end:                                           ; preds = %entry
  %call4 = tail call noundef i32 @_ZN3zmq15tune_tcp_socketEi(i32 noundef %call)
  %tcp_maxrt = getelementptr inbounds i8, ptr %this, i64 344
  %2 = load i32, ptr %tcp_maxrt, align 8
  %call5 = tail call noundef i32 @_ZN3zmq14tune_tcp_maxrtEii(i32 noundef %call, i32 noundef %2)
  %or = or i32 %call5, %call4
  %cmp6.not = icmp eq i32 %or, 0
  br i1 %cmp6.not, label %if.end15, label %if.then7

if.then7:                                         ; preds = %if.end
  %_socket8 = getelementptr inbounds i8, ptr %this, i64 1480
  %3 = load ptr, ptr %_socket8, align 8
  %_endpoint10 = getelementptr inbounds i8, ptr %this, i64 1488
  call void @_ZN3zmq35make_unconnected_bind_endpoint_pairERKNSt7__cxx1112basic_stringIcSt11char_traitsIcESaIcEEE(ptr nonnull sret(%"struct.zmq::endpoint_uri_pair_t") align 8 %ref.tmp9, ptr noundef nonnull align 8 dereferenceable(32) %_endpoint10)
  %call13 = invoke i32 @zmq_errno()
          to label %invoke.cont12 unwind label %lpad11

invoke.cont12:                                    ; preds = %if.then7
  invoke void @_ZN3zmq13socket_base_t19event_accept_failedERKNS_19endpoint_uri_pair_tEi(ptr noundef nonnull align 8 dereferenceable(1825) %3, ptr noundef nonnull align 8 dereferenceable(68) %ref.tmp9, i32 noundef %call13)
          to label %invoke.cont14 unwind label %lpad11

invoke.cont14:                                    ; preds = %invoke.cont12
  %remote.i7 = getelementptr inbounds i8, ptr %ref.tmp9, i64 32
  call void @_ZNSt7__cxx1112basic_stringIcSt11char_traitsIcESaIcEED1Ev(ptr noundef nonnull align 8 dereferenceable(32) %remote.i7) #14
  call void @_ZNSt7__cxx1112basic_stringIcSt11char_traitsIcESaIcEED1Ev(ptr noundef nonnull align 8 dereferenceable(32) %ref.tmp9) #14
  br label %return

lpad11:                                           ; preds = %invoke.cont12, %if.then7
  %4 = landingpad { ptr, i32 }
          cleanup
  br label %eh.resume

if.end15:                                         ; preds = %if.end
  tail call void @_ZN3zmq13ws_listener_t13create_engineEi(ptr noundef nonnull align 8 dereferenceable(1632) %this, i32 noundef %call)
  br label %return

return:                                           ; preds = %if.end15, %invoke.cont14, %invoke.cont3
  ret void

eh.resume:                                        ; preds = %lpad11, %lpad
  %ref.tmp9.sink9.sroa.phi = phi ptr [ %ref.tmp9.sink9.sroa.gep, %lpad11 ], [ %ref.tmp9.sink9.sroa.gep10, %lpad ]
  %ref.tmp9.sink9 = phi ptr [ %ref.tmp9, %lpad11 ], [ %ref.tmp, %lpad ]
  %.pn = phi { ptr, i32 } [ %4, %lpad11 ], [ %1, %lpad ]
  call void @_ZNSt7__cxx1112basic_stringIcSt11char_traitsIcESaIcEED1Ev(ptr noundef nonnull align 8 dereferenceable(32) %ref.tmp9.sink9.sroa.phi) #14
  call void @_ZNSt7__cxx1112basic_stringIcSt11char_traitsIcESaIcEED1Ev(ptr noundef nonnull align 8 dereferenceable(32) %ref.tmp9.sink9) #14
  resume { ptr, i32 } %.pn
}